; Function Attrs: nounwind uwtable
define internal ptr @zend_closure_get_method(ptr noundef %0, ptr noundef %1, ptr noundef %2) #0 {
  %4 = getelementptr inbounds nuw i8, ptr %1, i64 16
  %5 = load i64, ptr %4, align 8, !tbaa !68
  %6 = icmp eq i64 %5, 8
  br i1 %6, label %7, label %32

7:                                                ; preds = %3
  %8 = getelementptr inbounds nuw i8, ptr %1, i64 24
  %9 = tail call i32 @zend_binary_strcasecmp(ptr noundef nonnull %8, i64 noundef 8, ptr noundef nonnull @.str.27, i64 noundef 8) #13
  %.not = icmp eq i32 %9, 0
  br i1 %.not, label %10, label %32

10:                                               ; preds = %7
  %11 = load ptr, ptr %0, align 8, !tbaa !29
  %12 = tail call noalias ptr @_emalloc_256() #13
  %13 = getelementptr inbounds nuw i8, ptr %11, i64 56
  tail call void @llvm.memcpy.p0.p0.i64(ptr noundef nonnull align 8 dereferenceable(88) %12, ptr noundef nonnull readonly align 8 dereferenceable(88) %13, i64 88, i1 false), !tbaa.struct !84
  store i8 1, ptr %12, align 8, !tbaa !15
  %14 = getelementptr inbounds nuw i8, ptr %11, i64 60
  %15 = load i32, ptr %14, align 4, !tbaa !15
  %16 = and i32 %15, 28672
  %17 = or disjoint i32 %16, 262145
  %18 = getelementptr inbounds nuw i8, ptr %12, i64 4
  store i32 %17, ptr %18, align 4, !tbaa !15
  %19 = load i8, ptr %13, align 8, !tbaa !15
  %.not.i = icmp eq i8 %19, 1
  %20 = and i32 %15, 67108864
  %.not15.i = icmp eq i32 %20, 0
  %or.cond.i = select i1 %.not.i, i1 %.not15.i, i1 false
  br i1 %or.cond.i, label %zend_get_closure_invoke_method.exit, label %21

21:                                               ; preds = %10
  %22 = or disjoint i32 %16, 67371009
  store i32 %22, ptr %18, align 4, !tbaa !15
  br label %zend_get_closure_invoke_method.exit

zend_get_closure_invoke_method.exit:              ; preds = %10, %21
  %23 = getelementptr inbounds nuw i8, ptr %12, i64 88
  store ptr @zim_Closure___invoke, ptr %23, align 8, !tbaa !15
  %24 = getelementptr inbounds nuw i8, ptr %12, i64 64
  store ptr null, ptr %24, align 8, !tbaa !15
  %25 = getelementptr inbounds nuw i8, ptr %12, i64 96
  store ptr null, ptr %25, align 8, !tbaa !15
  %26 = load ptr, ptr @zend_ce_closure, align 8, !tbaa !28
  %27 = getelementptr inbounds nuw i8, ptr %12, i64 16
  store ptr %26, ptr %27, align 8, !tbaa !15
  %28 = load ptr, ptr @zend_known_strings, align 8, !tbaa !59
  %29 = getelementptr inbounds nuw i8, ptr %28, i64 184
  %30 = load ptr, ptr %29, align 8, !tbaa !61
  %31 = getelementptr inbounds nuw i8, ptr %12, i64 8
  store ptr %30, ptr %31, align 8, !tbaa !15
  br label %34

32:                                               ; preds = %7, %3
  %33 = tail call ptr @zend_std_get_method(ptr noundef %0, ptr noundef nonnull %1, ptr noundef %2) #13
  br label %34

34:                                               ; preds = %32, %zend_get_closure_invoke_method.exit
  %.0 = phi ptr [ %33, %32 ], [ %12, %zend_get_closure_invoke_method.exit ]
  ret ptr %.0
}